(dp1
S'node_deps'
p2
(dp3
S'\x12\xdc3\xd2\xddVL\x9cr\xdfu\x14\xd4\xb7f\xa3'
p4
(lp5
ssS'raw_deps'
p6
(dp7
g4
(lp8
S'linux/if_tun.h'
p9
assS'root'
p10
ccopy_reg
_reconstructor
p11
(cwaflib.Node
Nod3
p12
c__builtin__
object
p13
NtRp14
(S''
N(dp15
S'home'
p16
g11
(g12
g13
NtRp17
(g16
g14
(dp18
S'pradeepkumar'
p19
g11
(g12
g13
NtRp20
(g19
g17
(dp21
S'ns-allinone-3.15'
p22
g11
(g12
g13
NtRp23
(g22
g20
(dp24
S'ns-3.15'
p25
g11
(g12
g13
NtRp26
(g25
g23
(dp27
S'foo'
p28
g11
(g12
g13
NtRp29
(g28
g26
(dp30
S'.conf_check_e2bf758aaca47858b67848f504a8de27'
p31
g11
(g12
g13
NtRp32
(g31
g29
(dp33
S'testbuild'
p34
g11
(g12
g13
NtRp35
(g34
g32
(dp36
S'testprog'
p37
g11
(g12
g13
NtRp38
(g37
g35
NS's\x86\x10x3W\x91\x14\xa9\xaf\x8b+w\xca\xc3\x91'
p39
tbsS'test.cpp.1.o'
p40
g11
(g12
g13
NtRp41
(g40
g35
NS'\x15\xebd\x1b\x81]\x88g\x97cc\xc2\x92\x11#\xb4'
p42
tbsNtbsS'test.cpp'
p43
g11
(g12
g13
NtRp44
(g43
g32
NS'\x91N\x80\xce:[31\\\xd2\xaakj\xeb\x07|'
p45
tbsNtbsNtbsNtbsNtbsNtbsNtbsNtbsS'task_sigs'
p46
(dp47
(g4
S'imp'
p48
tp49
S'\x15\xebd\x1b\x81]\x88g\x97cc\xc2\x92\x11#\xb4'
p50
sg4
g42
sS'zk5\xcf\x08gE\x80\rc\xf8+\xf16\xd5\xa6'
p51
g39
ss.