(dp1
S'node_deps'
p2
(dp3
S'|S\xd8\xf6\xbf\x95\xe5\xfe\xb1\xb6\xbe\x082\x91\x13\xe4'
p4
(lp5
ssS'raw_deps'
p6
(dp7
g4
(lp8
S'stdio.h'
p9
assS'root'
p10
ccopy_reg
_reconstructor
p11
(cwaflib.Node
Nod3
p12
c__builtin__
object
p13
NtRp14
(S''
N(dp15
S'home'
p16
g11
(g12
g13
NtRp17
(g16
g14
(dp18
S'pradeepkumar'
p19
g11
(g12
g13
NtRp20
(g19
g17
(dp21
S'ns-allinone-3.15'
p22
g11
(g12
g13
NtRp23
(g22
g20
(dp24
S'ns-3.15'
p25
g11
(g12
g13
NtRp26
(g25
g23
(dp27
S'foo'
p28
g11
(g12
g13
NtRp29
(g28
g26
(dp30
S'.conf_check_fe0ca542f39064c5a14ee41a2e983996'
p31
g11
(g12
g13
NtRp32
(g31
g29
(dp33
S'test.cc'
p34
g11
(g12
g13
NtRp35
(g34
g32
NS'Hm~\xf3\x9f\xc5G\xf8,-\xbc\xdc%\xfa\xbc\x9a'
p36
tbsS'testbuild'
p37
g11
(g12
g13
NtRp38
(g37
g32
(dp39
S'testprog'
p40
g11
(g12
g13
NtRp41
(g40
g38
NS'?\x83\xdcS\x90\x9d\xaaxF\xc38\t\x82\xddPR'
p42
tbsS'test.cc.1.o'
p43
g11
(g12
g13
NtRp44
(g43
g38
NS'\xb7\x05\xee\x1b1j\ta\x87\xcbJ\xfa\xf3\x04\xe9\x80'
p45
tbsNtbsNtbsNtbsNtbsNtbsNtbsNtbsNtbsS'task_sigs'
p46
(dp47
g4
g45
s(g4
S'imp'
p48
tp49
S'\xb7\x05\xee\x1b1j\ta\x87\xcbJ\xfa\xf3\x04\xe9\x80'
p50
sS'\xca\xd2\xa12\xdba3{\x96\nRN\x8d\xccAH'
p51
g42
ss.