(dp1
S'node_deps'
p2
(dp3
S'\x12\xdc3\xd2\xddVL\x9cr\xdfu\x14\xd4\xb7f\xa3'
p4
(lp5
ssS'raw_deps'
p6
(dp7
g4
(lp8
ssS'root'
p9
ccopy_reg
_reconstructor
p10
(cwaflib.Node
Nod3
p11
c__builtin__
object
p12
NtRp13
(S''
N(dp14
S'home'
p15
g10
(g11
g12
NtRp16
(g15
g13
(dp17
S'pradeepkumar'
p18
g10
(g11
g12
NtRp19
(g18
g16
(dp20
S'ns-allinone-3.15'
p21
g10
(g11
g12
NtRp22
(g21
g19
(dp23
S'ns-3.15'
p24
g10
(g11
g12
NtRp25
(g24
g22
(dp26
S'foo'
p27
g10
(g11
g12
NtRp28
(g27
g25
(dp29
S'.conf_check_9a1d0551212c9d703363e62dfbc51c79'
p30
g10
(g11
g12
NtRp31
(g30
g28
(dp32
S'testbuild'
p33
g10
(g11
g12
NtRp34
(g33
g31
(dp35
S'testprog'
p36
g10
(g11
g12
NtRp37
(g36
g34
NS'\xa2\xd0\xb9t\x04N\x05;\x98\x9e\xca\xab8\x07\xab\xd9'
p38
tbsS'test.cpp.1.o'
p39
g10
(g11
g12
NtRp40
(g39
g34
NS'\x14\x9b\xe8\xa6ZZj\x8b\x11\x97\xd7\xfc\xf7-\xad>'
p41
tbsNtbsS'test.cpp'
p42
g10
(g11
g12
NtRp43
(g42
g31
NS'\x93\x17E\xecC\x87\xe9\xdf\x02\xe2\xc3Y\x0be\xf8c'
p44
tbsNtbsNtbsNtbsNtbsNtbsNtbsNtbsS'task_sigs'
p45
(dp46
(g4
S'imp'
p47
tp48
S'\x14\x9b\xe8\xa6ZZj\x8b\x11\x97\xd7\xfc\xf7-\xad>'
p49
sg4
g41
sS'zk5\xcf\x08gE\x80\rc\xf8+\xf16\xd5\xa6'
p50
g38
ss.