(dp1
S'node_deps'
p2
(dp3
S'\xb7\xcb\xb1r\xd9\xc7Z`\xa8<<\xc80\xbe\xff\xc0'
p4
(lp5
ssS'raw_deps'
p6
(dp7
g4
(lp8
S'stdio.h'
p9
assS'root'
p10
ccopy_reg
_reconstructor
p11
(cwaflib.Node
Nod3
p12
c__builtin__
object
p13
NtRp14
(S''
N(dp15
S'home'
p16
g11
(g12
g13
NtRp17
(g16
g14
(dp18
S'pradeepkumar'
p19
g11
(g12
g13
NtRp20
(g19
g17
(dp21
S'ns-allinone-3.15'
p22
g11
(g12
g13
NtRp23
(g22
g20
(dp24
S'ns-3.15'
p25
g11
(g12
g13
NtRp26
(g25
g23
(dp27
S'foo'
p28
g11
(g12
g13
NtRp29
(g28
g26
(dp30
S'.conf_check_d8a2c40aecfb7c8eac7dd03fcbfb1110'
p31
g11
(g12
g13
NtRp32
(g31
g29
(dp33
S'test.c'
p34
g11
(g12
g13
NtRp35
(g34
g32
NS'Hm~\xf3\x9f\xc5G\xf8,-\xbc\xdc%\xfa\xbc\x9a'
p36
tbsS'testbuild'
p37
g11
(g12
g13
NtRp38
(g37
g32
(dp39
S'testprog'
p40
g11
(g12
g13
NtRp41
(g40
g38
NS'\x1f\x81\xb2\x8e\xe3\x13Iw\xaea\x9b\xc0?\xe3\xe4w'
p42
tbsS'test.c.1.o'
p43
g11
(g12
g13
NtRp44
(g43
g38
NS'/=\xb4\x99f\x14\x88r\xe6\xd7b\x9e$\xfe\x8e9'
p45
tbsNtbsNtbsNtbsNtbsNtbsNtbsNtbsNtbsS'task_sigs'
p46
(dp47
g4
g45
s(g4
S'imp'
p48
tp49
S'/=\xb4\x99f\x14\x88r\xe6\xd7b\x9e$\xfe\x8e9'
p50
sS'V\xa3\xed\x99Y\x87\xa6U\xb8&\xbe\xa7&\xff\xdc}'
p51
g42
ss.