(dp1
S'node_deps'
p2
(dp3
S'\x12\xdc3\xd2\xddVL\x9cr\xdfu\x14\xd4\xb7f\xa3'
p4
(lp5
ssS'raw_deps'
p6
(dp7
g4
(lp8
S'Python.h'
p9
assS'root'
p10
ccopy_reg
_reconstructor
p11
(cwaflib.Node
Nod3
p12
c__builtin__
object
p13
NtRp14
(S''
N(dp15
S'home'
p16
g11
(g12
g13
NtRp17
(g16
g14
(dp18
S'pradeepkumar'
p19
g11
(g12
g13
NtRp20
(g19
g17
(dp21
S'ns-allinone-3.15'
p22
g11
(g12
g13
NtRp23
(g22
g20
(dp24
S'ns-3.15'
p25
g11
(g12
g13
NtRp26
(g25
g23
(dp27
S'foo'
p28
g11
(g12
g13
NtRp29
(g28
g26
(dp30
S'.conf_check_d6c8946949ece91ce43c989711393fec'
p31
g11
(g12
g13
NtRp32
(g31
g29
(dp33
S'testbuild'
p34
g11
(g12
g13
NtRp35
(g34
g32
(dp36
S'testprog'
p37
g11
(g12
g13
NtRp38
(g37
g35
NS'\x0e\xc4\\^{\xf7<\x80u\xa5\xaa%%\x9f|\xba'
p39
tbsS'test.cpp.1.o'
p40
g11
(g12
g13
NtRp41
(g40
g35
NS'\x9a\xb8I\xb8;\x87S#\xa3]"\x0b\xf2\xf2\xab\xb2'
p42
tbsNtbsS'test.cpp'
p43
g11
(g12
g13
NtRp44
(g43
g32
NS'\xd7`*\x94\xdc\xd2<\xe2\x1a\x95O\x19\x7f\x81>%'
p45
tbsNtbsNtbsNtbsNtbsNtbsNtbsS'usr'
p46
g11
(g12
g13
NtRp47
(g46
g14
(dp48
S'include'
p49
g11
(g12
g13
NtRp50
(g49
g47
(dp51
S'x86_64-linux-gnu'
p52
g11
(g12
g13
NtRp53
(g52
g50
(dp54
S'python2.7'
p55
g11
(g12
g13
NtRp56
(g55
g53
NNtbsNtbsS'python2.7'
p57
g11
(g12
g13
NtRp58
(g57
g50
NNtbsNtbsNtbsNtbsS'task_sigs'
p59
(dp60
(g4
S'imp'
p61
tp62
S'\x9a\xb8I\xb8;\x87S#\xa3]"\x0b\xf2\xf2\xab\xb2'
p63
sg4
g42
sS'zk5\xcf\x08gE\x80\rc\xf8+\xf16\xd5\xa6'
p64
g39
ss.